; Function Attrs: null_pointer_is_valid sspstrong uwtable
define internal noundef zeroext i1 @carrays_write_packet(ptr noundef readonly captures(none) %0, ptr noundef %1, ptr noundef %2, ptr noundef %3) #1 {
  %5 = getelementptr inbounds nuw i8, ptr %3, i64 8
  %6 = getelementptr inbounds nuw i8, ptr %0, i64 48
  %7 = load i16, ptr %6, align 8
  %8 = zext i16 %7 to i32
  tail call void @epan_dissect_run(ptr noundef nonnull %5, i32 noundef %8, ptr noundef %2, ptr noundef %1, ptr noundef null)
  %9 = load i32, ptr %1, align 8
  %10 = load ptr, ptr %3, align 8
  tail call void @write_carrays_hex_data(i32 noundef %9, ptr noundef %10, ptr noundef nonnull %5)
  tail call void @epan_dissect_reset(ptr noundef nonnull %5)
  %11 = load ptr, ptr %3, align 8
  %12 = tail call i32 @ferror(ptr noundef %11) #23
  %.not = icmp eq i32 %12, 0
  ret i1 %.not
}